(lp0
(lp1
S'Argentina'
p2
aS'Buenos Aires'
p3
aa(lp4
S'Bolivia'
p5
aS'Sucre'
p6
aa(lp7
S'Brasil'
p8
aS'Brasilia'
p9
aa(lp10
S'Chile'
p11
aS'Santiago de chile'
p12
aa(lp13
S'Colombia'
p14
aS'Bogota'
p15
aa(lp16
S'Ecuador'
p17
aS'Quito'
p18
aa(lp19
S'Guyana'
p20
aS'Georgetown'
p21
aa(lp22
S'Paraguay'
p23
aS'Asuncion'
p24
aa(lp25
S'Peru'
p26
aS'Lima'
p27
aa(lp28
S'Surinam'
p29
aS'Paramaribo'
p30
aa(lp31
S'Uruguay'
p32
aS'Montevideo'
p33
aa(lp34
S'Venezuela'
p35
aS'Caracas'
p36
aa.