(lp0
(lp1
S'CBB'
p2
aI1100
aa(lp3
S'CCC'
p4
aI700
aa(lp5
S'CCC'
p6
aI600
aa(lp7
S'CDC'
p8
aI600
aa(lp9
S'ACA'
p10
aI400
aa(lp11
S'BBD'
p12
aI400
aa(lp13
S'ECB'
p14
aI300
aa(lp15
S'AAA'
p16
aI100
aa(lp17
g16
aI100
aa(lp18
g16
aI100
aa.