(lp0
(lp1
S'CBB'
p2
aI1100
aa(lp3
S'CCC'
p4
aI700
aa(lp5
S'CCC'
p6
aI600
aa(lp7
S'BBD'
p8
aI400
aa(lp9
S'ACA'
p10
aI400
aa(lp11
S'AAA'
p12
aI100
aa(lp13
g12
aI100
aa(lp14
g12
aI100
aa(lp15
g12
aI100
aa(lp16
g12
aI100
aa.