(lp0
(lp1
S'CBB'
p2
aI1100
aa(lp3
S'CCC'
p4
aI700
aa(lp5
S'CCC'
p6
aI600
aa(lp7
S'BBD'
p8
aI400
aa(lp9
S'AAA'
p10
aI100
aa(lp11
g10
aI100
aa(lp12
g10
aI100
aa(lp13
g10
aI100
aa(lp14
g10
aI100
aa(lp15
g10
aI100
aa.